; Function Attrs: mustprogress nofree norecurse nosync nounwind memory(read, argmem: readwrite, inaccessiblemem: none) uwtable
define hidden noundef zeroext i1 @_ZNK7counter16get_max_positiveERj(ptr nocapture noundef nonnull readonly align 8 dereferenceable(24) %this, ptr nocapture noundef nonnull align 4 dereferenceable(4) %res) local_unnamed_addr #5 align 2 {
entry:
  %0 = load ptr, ptr %this, align 8
  %m_capacity.i.i.i = getelementptr inbounds i8, ptr %this, i64 8
  %1 = load i32, ptr %m_capacity.i.i.i, align 8
  %idx.ext.i.i.i = zext i32 %1 to i64
  %add.ptr.i.i.i = getelementptr inbounds %class.default_map_entry, ptr %0, i64 %idx.ext.i.i.i
  %cmp.not2.i.i.i.i.i = icmp eq i32 %1, 0
  br i1 %cmp.not2.i.i.i.i.i, label %_ZNK7counter5beginEv.exit, label %land.rhs.i.i.i.i.i

land.rhs.i.i.i.i.i:                               ; preds = %entry, %while.body.i.i.i.i.i
  %retval.sroa.0.0.i.i.i = phi ptr [ %incdec.ptr.i.i.i.i.i, %while.body.i.i.i.i.i ], [ %0, %entry ]
  %m_state.i.i.i.i.i.i = getelementptr inbounds i8, ptr %retval.sroa.0.0.i.i.i, i64 4
  %2 = load i32, ptr %m_state.i.i.i.i.i.i, align 4
  %cmp.i.i.i.i.i.i = icmp eq i32 %2, 2
  br i1 %cmp.i.i.i.i.i.i, label %_ZNK7counter5beginEv.exit, label %while.body.i.i.i.i.i

while.body.i.i.i.i.i:                             ; preds = %land.rhs.i.i.i.i.i
  %incdec.ptr.i.i.i.i.i = getelementptr inbounds i8, ptr %retval.sroa.0.0.i.i.i, i64 16
  %cmp.not.i.i.i.i.i = icmp eq ptr %incdec.ptr.i.i.i.i.i, %add.ptr.i.i.i
  br i1 %cmp.not.i.i.i.i.i, label %for.end, label %land.rhs.i.i.i.i.i, !llvm.loop !6

_ZNK7counter5beginEv.exit:                        ; preds = %land.rhs.i.i.i.i.i, %entry
  %retval.sroa.0.1.i.i.i = phi ptr [ %0, %entry ], [ %retval.sroa.0.0.i.i.i, %land.rhs.i.i.i.i.i ]
  %cmp.i.not13 = icmp eq ptr %retval.sroa.0.1.i.i.i, %add.ptr.i.i.i
  br i1 %cmp.i.not13, label %for.end, label %for.body.preheader

for.body.preheader:                               ; preds = %_ZNK7counter5beginEv.exit
  %res.promoted = load i32, ptr %res, align 4
  br label %for.body

for.body:                                         ; preds = %for.body.preheader, %_ZN14core_hashtableI17default_map_entryIjiEN9table2mapIS1_6u_hash4u_eqE15entry_hash_procENS5_13entry_eq_procEE8iteratorppEv.exit
  %found.015 = phi i8 [ %found.1, %_ZN14core_hashtableI17default_map_entryIjiEN9table2mapIS1_6u_hash4u_eqE15entry_hash_procENS5_13entry_eq_procEE8iteratorppEv.exit ], [ 0, %for.body.preheader ]
  %__begin1.sroa.0.014 = phi ptr [ %__begin1.sroa.0.1, %_ZN14core_hashtableI17default_map_entryIjiEN9table2mapIS1_6u_hash4u_eqE15entry_hash_procENS5_13entry_eq_procEE8iteratorppEv.exit ], [ %retval.sroa.0.1.i.i.i, %for.body.preheader ]
  %3 = phi i32 [ %6, %_ZN14core_hashtableI17default_map_entryIjiEN9table2mapIS1_6u_hash4u_eqE15entry_hash_procENS5_13entry_eq_procEE8iteratorppEv.exit ], [ %res.promoted, %for.body.preheader ]
  %m_value = getelementptr inbounds i8, ptr %__begin1.sroa.0.014, i64 12
  %4 = load i32, ptr %m_value, align 4
  %cmp = icmp sgt i32 %4, 0
  br i1 %cmp, label %land.lhs.true, label %for.inc

land.lhs.true:                                    ; preds = %for.body
  %m_data.i.i = getelementptr inbounds i8, ptr %__begin1.sroa.0.014, i64 8
  %5 = and i8 %found.015, 1
  %tobool.not = icmp eq i8 %5, 0
  %.pre = load i32, ptr %m_data.i.i, align 4
  %cmp5 = icmp ugt i32 %.pre, %3
  %or.cond = select i1 %tobool.not, i1 true, i1 %cmp5
  br i1 %or.cond, label %if.then, label %for.inc

if.then:                                          ; preds = %land.lhs.true
  store i32 %.pre, ptr %res, align 4
  br label %for.inc

for.inc:                                          ; preds = %land.lhs.true, %for.body, %if.then
  %6 = phi i32 [ %.pre, %if.then ], [ %3, %for.body ], [ %3, %land.lhs.true ]
  %found.1 = phi i8 [ 1, %if.then ], [ %found.015, %for.body ], [ %found.015, %land.lhs.true ]
  %incdec.ptr.i = getelementptr inbounds i8, ptr %__begin1.sroa.0.014, i64 16
  %cmp.not2.i.i = icmp eq ptr %incdec.ptr.i, %add.ptr.i.i.i
  br i1 %cmp.not2.i.i, label %for.end.loopexit, label %land.rhs.i.i

land.rhs.i.i:                                     ; preds = %for.inc, %while.body.i.i
  %__begin1.sroa.0.1 = phi ptr [ %incdec.ptr.i.i, %while.body.i.i ], [ %incdec.ptr.i, %for.inc ]
  %m_state.i.i.i = getelementptr inbounds i8, ptr %__begin1.sroa.0.1, i64 4
  %7 = load i32, ptr %m_state.i.i.i, align 4
  %cmp.i.i.i = icmp eq i32 %7, 2
  br i1 %cmp.i.i.i, label %_ZN14core_hashtableI17default_map_entryIjiEN9table2mapIS1_6u_hash4u_eqE15entry_hash_procENS5_13entry_eq_procEE8iteratorppEv.exit, label %while.body.i.i

while.body.i.i:                                   ; preds = %land.rhs.i.i
  %incdec.ptr.i.i = getelementptr inbounds i8, ptr %__begin1.sroa.0.1, i64 16
  %cmp.not.i.i = icmp eq ptr %incdec.ptr.i.i, %add.ptr.i.i.i
  br i1 %cmp.not.i.i, label %for.end.loopexit, label %land.rhs.i.i, !llvm.loop !6

_ZN14core_hashtableI17default_map_entryIjiEN9table2mapIS1_6u_hash4u_eqE15entry_hash_procENS5_13entry_eq_procEE8iteratorppEv.exit: ; preds = %land.rhs.i.i
  %cmp.i.not = icmp eq ptr %__begin1.sroa.0.1, %add.ptr.i.i.i
  br i1 %cmp.i.not, label %for.end.loopexit, label %for.body

for.end.loopexit:                                 ; preds = %for.inc, %_ZN14core_hashtableI17default_map_entryIjiEN9table2mapIS1_6u_hash4u_eqE15entry_hash_procENS5_13entry_eq_procEE8iteratorppEv.exit, %while.body.i.i
  %8 = and i8 %found.1, 1
  %9 = icmp ne i8 %8, 0
  br label %for.end

for.end:                                          ; preds = %while.body.i.i.i.i.i, %for.end.loopexit, %_ZNK7counter5beginEv.exit
  %found.0.lcssa = phi i1 [ false, %_ZNK7counter5beginEv.exit ], [ %9, %for.end.loopexit ], [ false, %while.body.i.i.i.i.i ]
  ret i1 %found.0.lcssa
}